target datalayout = "e-m:e-p270:32:32-p271:32:32-p272:64:64-i64:64-i128:128-f80:128-n8:16:32:64-S128"
target triple = "x86_64-unknown-linux-gnu"

%"class.node::SocketAddress" = type { %"class.node::MemoryRetainer", %struct.sockaddr_storage }
%"class.node::MemoryRetainer" = type { ptr }
%struct.sockaddr_storage = type { i16, [118 x i8], i64 }
%struct.sockaddr_in = type { i16, i16, %struct.in_addr, [8 x i8] }
%struct.in_addr = type { i32 }
%struct.sockaddr_in6 = type { i16, i16, i32, %struct.in6_addr, i32 }
%struct.in6_addr = type { %union.anon }
%union.anon = type { [4 x i32] }

@_ZN4node12_GLOBAL__N_14maskE = internal constant [12 x i8] c"\00\00\00\00\00\00\00\00\00\00\FF\FF", align 1

; Function Attrs: mustprogress nounwind uwtable
define linkonce_odr dso_local noundef ptr @_ZNK4node13SocketAddress4dataEv(ptr noundef nonnull align 8 dereferenceable(136) %this) #4 comdat align 2 {
entry:
  %this.addr = alloca ptr, align 8
  store ptr %this, ptr %this.addr, align 8
  %this1 = load ptr, ptr %this.addr, align 8
  %address_ = getelementptr inbounds %"class.node::SocketAddress", ptr %this1, i32 0, i32 1
  ret ptr %address_
}

; Function Attrs: mustprogress nounwind uwtable
define internal noundef i32 @_ZN4node12_GLOBAL__N_112compare_ipv6ERKNS_13SocketAddressES3_(ptr noundef nonnull align 8 dereferenceable(136) %one, ptr noundef nonnull align 8 dereferenceable(136) %two) #4 {
entry:
  %retval = alloca i32, align 4
  %one.addr = alloca ptr, align 8
  %two.addr = alloca ptr, align 8
  %one_in = alloca ptr, align 8
  %two_in = alloca ptr, align 8
  %ret = alloca i32, align 4
  store ptr %one, ptr %one.addr, align 8
  store ptr %two, ptr %two.addr, align 8
  %0 = load ptr, ptr %one.addr, align 8
  %call = call noundef ptr @_ZNK4node13SocketAddress4dataEv(ptr noundef nonnull align 8 dereferenceable(136) %0)
  store ptr %call, ptr %one_in, align 8
  %1 = load ptr, ptr %two.addr, align 8
  %call1 = call noundef ptr @_ZNK4node13SocketAddress4dataEv(ptr noundef nonnull align 8 dereferenceable(136) %1)
  store ptr %call1, ptr %two_in, align 8
  %2 = load ptr, ptr %one_in, align 8
  %sin6_addr = getelementptr inbounds %struct.sockaddr_in6, ptr %2, i32 0, i32 3
  %3 = load ptr, ptr %two_in, align 8
  %sin6_addr2 = getelementptr inbounds %struct.sockaddr_in6, ptr %3, i32 0, i32 3
  %call3 = call i32 @memcmp(ptr noundef %sin6_addr, ptr noundef %sin6_addr2, i64 noundef 16) #16
  store i32 %call3, ptr %ret, align 4
  %4 = load i32, ptr %ret, align 4
  %cmp = icmp slt i32 %4, 0
  br i1 %cmp, label %if.then, label %if.else

if.then:                                          ; preds = %entry
  store i32 -1, ptr %retval, align 4
  br label %return

if.else:                                          ; preds = %entry
  %5 = load i32, ptr %ret, align 4
  %cmp4 = icmp sgt i32 %5, 0
  br i1 %cmp4, label %if.then5, label %if.end

if.then5:                                         ; preds = %if.else
  store i32 1, ptr %retval, align 4
  br label %return

if.end:                                           ; preds = %if.else
  br label %if.end6

if.end6:                                          ; preds = %if.end
  store i32 0, ptr %retval, align 4
  br label %return

return:                                           ; preds = %if.end6, %if.then5, %if.then
  %6 = load i32, ptr %retval, align 4
  ret i32 %6
}

; Function Attrs: mustprogress nounwind uwtable
define internal noundef i32 @_ZN4node12_GLOBAL__N_117compare_ipv4_ipv6ERKNS_13SocketAddressES3_(ptr noundef nonnull align 8 dereferenceable(136) %ipv4, ptr noundef nonnull align 8 dereferenceable(136) %ipv6) #4 {
entry:
  %retval = alloca i32, align 4
  %ipv4.addr = alloca ptr, align 8
  %ipv6.addr = alloca ptr, align 8
  %ipv4_in = alloca ptr, align 8
  %ipv6_in = alloca ptr, align 8
  %ptr = alloca ptr, align 8
  %ret = alloca i32, align 4
  store ptr %ipv4, ptr %ipv4.addr, align 8
  store ptr %ipv6, ptr %ipv6.addr, align 8
  %0 = load ptr, ptr %ipv4.addr, align 8
  %call = call noundef ptr @_ZNK4node13SocketAddress4dataEv(ptr noundef nonnull align 8 dereferenceable(136) %0)
  store ptr %call, ptr %ipv4_in, align 8
  %1 = load ptr, ptr %ipv6.addr, align 8
  %call1 = call noundef ptr @_ZNK4node13SocketAddress4dataEv(ptr noundef nonnull align 8 dereferenceable(136) %1)
  store ptr %call1, ptr %ipv6_in, align 8
  %2 = load ptr, ptr %ipv6_in, align 8
  %sin6_addr = getelementptr inbounds %struct.sockaddr_in6, ptr %2, i32 0, i32 3
  store ptr %sin6_addr, ptr %ptr, align 8
  %3 = load ptr, ptr %ptr, align 8
  %call2 = call i32 @memcmp(ptr noundef %3, ptr noundef @_ZN4node12_GLOBAL__N_14maskE, i64 noundef 12) #16
  %cmp = icmp ne i32 %call2, 0
  br i1 %cmp, label %if.then, label %if.end

if.then:                                          ; preds = %entry
  store i32 -2, ptr %retval, align 4
  br label %return

if.end:                                           ; preds = %entry
  %4 = load ptr, ptr %ipv4_in, align 8
  %sin_addr = getelementptr inbounds %struct.sockaddr_in, ptr %4, i32 0, i32 2
  %5 = load ptr, ptr %ptr, align 8
  %add.ptr = getelementptr inbounds i8, ptr %5, i64 12
  %call3 = call i32 @memcmp(ptr noundef %sin_addr, ptr noundef %add.ptr, i64 noundef 4) #16
  store i32 %call3, ptr %ret, align 4
  %6 = load i32, ptr %ret, align 4
  %cmp4 = icmp slt i32 %6, 0
  br i1 %cmp4, label %if.then5, label %if.else

if.then5:                                         ; preds = %if.end
  store i32 -1, ptr %retval, align 4
  br label %return

if.else:                                          ; preds = %if.end
  %7 = load i32, ptr %ret, align 4
  %cmp6 = icmp sgt i32 %7, 0
  br i1 %cmp6, label %if.then7, label %if.end8

if.then7:                                         ; preds = %if.else
  store i32 1, ptr %retval, align 4
  br label %return

if.end8:                                          ; preds = %if.else
  br label %if.end9

if.end9:                                          ; preds = %if.end8
  store i32 0, ptr %retval, align 4
  br label %return

return:                                           ; preds = %if.end9, %if.then7, %if.then5, %if.then
  %8 = load i32, ptr %retval, align 4
  ret i32 %8
}

; Function Attrs: mustprogress nounwind uwtable
define internal noundef i32 @_ZN4node12_GLOBAL__N_112compare_ipv4ERKNS_13SocketAddressES3_(ptr noundef nonnull align 8 dereferenceable(136) %one, ptr noundef nonnull align 8 dereferenceable(136) %two) #4 {
entry:
  %retval = alloca i32, align 4
  %one.addr = alloca ptr, align 8
  %two.addr = alloca ptr, align 8
  %one_in = alloca ptr, align 8
  %two_in = alloca ptr, align 8
  %s_addr_one = alloca i32, align 4
  %s_addr_two = alloca i32, align 4
  store ptr %one, ptr %one.addr, align 8
  store ptr %two, ptr %two.addr, align 8
  %0 = load ptr, ptr %one.addr, align 8
  %call = call noundef ptr @_ZNK4node13SocketAddress4dataEv(ptr noundef nonnull align 8 dereferenceable(136) %0)
  store ptr %call, ptr %one_in, align 8
  %1 = load ptr, ptr %two.addr, align 8
  %call1 = call noundef ptr @_ZNK4node13SocketAddress4dataEv(ptr noundef nonnull align 8 dereferenceable(136) %1)
  store ptr %call1, ptr %two_in, align 8
  %2 = load ptr, ptr %one_in, align 8
  %sin_addr = getelementptr inbounds %struct.sockaddr_in, ptr %2, i32 0, i32 2
  %s_addr = getelementptr inbounds %struct.in_addr, ptr %sin_addr, i32 0, i32 0
  %3 = load i32, ptr %s_addr, align 4
  %call2 = call i32 @ntohl(i32 noundef %3) #17
  store i32 %call2, ptr %s_addr_one, align 4
  %4 = load ptr, ptr %two_in, align 8
  %sin_addr3 = getelementptr inbounds %struct.sockaddr_in, ptr %4, i32 0, i32 2
  %s_addr4 = getelementptr inbounds %struct.in_addr, ptr %sin_addr3, i32 0, i32 0
  %5 = load i32, ptr %s_addr4, align 4
  %call5 = call i32 @ntohl(i32 noundef %5) #17
  store i32 %call5, ptr %s_addr_two, align 4
  %6 = load i32, ptr %s_addr_one, align 4
  %7 = load i32, ptr %s_addr_two, align 4
  %cmp = icmp ult i32 %6, %7
  br i1 %cmp, label %if.then, label %if.else

if.then:                                          ; preds = %entry
  store i32 -1, ptr %retval, align 4
  br label %return

if.else:                                          ; preds = %entry
  %8 = load i32, ptr %s_addr_one, align 4
  %9 = load i32, ptr %s_addr_two, align 4
  %cmp6 = icmp eq i32 %8, %9
  br i1 %cmp6, label %if.then7, label %if.else8

if.then7:                                         ; preds = %if.else
  store i32 0, ptr %retval, align 4
  br label %return

if.else8:                                         ; preds = %if.else
  store i32 1, ptr %retval, align 4
  br label %return

return:                                           ; preds = %if.else8, %if.then7, %if.then
  %10 = load i32, ptr %retval, align 4
  ret i32 %10
}

; Function Attrs: mustprogress nounwind uwtable
define linkonce_odr dso_local noundef i32 @_ZNK4node13SocketAddress6familyEv(ptr noundef nonnull align 8 dereferenceable(136) %this) #4 comdat align 2 {
entry:
  %this.addr = alloca ptr, align 8
  store ptr %this, ptr %this.addr, align 8
  %this1 = load ptr, ptr %this.addr, align 8
  %address_ = getelementptr inbounds %"class.node::SocketAddress", ptr %this1, i32 0, i32 1
  %ss_family = getelementptr inbounds %struct.sockaddr_storage, ptr %address_, i32 0, i32 0
  %0 = load i16, ptr %ss_family, align 8
  %conv = zext i16 %0 to i32
  ret i32 %conv
}

; Function Attrs: mustprogress nounwind uwtable
define dso_local noundef i32 @_ZNK4node13SocketAddress7compareERKS0_(ptr noundef nonnull align 8 dereferenceable(136) %this, ptr noundef nonnull align 8 dereferenceable(136) %other) #4 align 2 {
entry:
  %retval = alloca i32, align 4
  %this.addr = alloca ptr, align 8
  %other.addr = alloca ptr, align 8
  %c = alloca i32, align 4
  store ptr %this, ptr %this.addr, align 8
  store ptr %other, ptr %other.addr, align 8
  %this1 = load ptr, ptr %this.addr, align 8
  %call = call noundef i32 @_ZNK4node13SocketAddress6familyEv(ptr noundef nonnull align 8 dereferenceable(136) %this1)
  switch i32 %call, label %sw.epilog18 [
    i32 2, label %sw.bb
    i32 10, label %sw.bb7
  ]

sw.bb:                                            ; preds = %entry
  %0 = load ptr, ptr %other.addr, align 8
  %call2 = call noundef i32 @_ZNK4node13SocketAddress6familyEv(ptr noundef nonnull align 8 dereferenceable(136) %0)
  switch i32 %call2, label %sw.epilog [
    i32 2, label %sw.bb3
    i32 10, label %sw.bb5
  ]

sw.bb3:                                           ; preds = %sw.bb
  %1 = load ptr, ptr %other.addr, align 8
  %call4 = call noundef i32 @_ZN4node12_GLOBAL__N_112compare_ipv4ERKNS_13SocketAddressES3_(ptr noundef nonnull align 8 dereferenceable(136) %this1, ptr noundef nonnull align 8 dereferenceable(136) %1)
  store i32 %call4, ptr %retval, align 4
  br label %return

sw.bb5:                                           ; preds = %sw.bb
  %2 = load ptr, ptr %other.addr, align 8
  %call6 = call noundef i32 @_ZN4node12_GLOBAL__N_117compare_ipv4_ipv6ERKNS_13SocketAddressES3_(ptr noundef nonnull align 8 dereferenceable(136) %this1, ptr noundef nonnull align 8 dereferenceable(136) %2)
  store i32 %call6, ptr %retval, align 4
  br label %return

sw.epilog:                                        ; preds = %sw.bb
  br label %sw.epilog18

sw.bb7:                                           ; preds = %entry
  %3 = load ptr, ptr %other.addr, align 8
  %call8 = call noundef i32 @_ZNK4node13SocketAddress6familyEv(ptr noundef nonnull align 8 dereferenceable(136) %3)
  switch i32 %call8, label %sw.epilog17 [
    i32 2, label %sw.bb9
    i32 10, label %sw.bb15
  ]

sw.bb9:                                           ; preds = %sw.bb7
  %4 = load ptr, ptr %other.addr, align 8
  %call10 = call noundef i32 @_ZN4node12_GLOBAL__N_117compare_ipv4_ipv6ERKNS_13SocketAddressES3_(ptr noundef nonnull align 8 dereferenceable(136) %4, ptr noundef nonnull align 8 dereferenceable(136) %this1)
  store i32 %call10, ptr %c, align 4
  %5 = load i32, ptr %c, align 4
  switch i32 %5, label %sw.epilog14 [
    i32 -2, label %sw.bb11
    i32 0, label %sw.bb11
    i32 1, label %sw.bb12
    i32 -1, label %sw.bb13
  ]

sw.bb11:                                          ; preds = %sw.bb9, %sw.bb9
  %6 = load i32, ptr %c, align 4
  store i32 %6, ptr %retval, align 4
  br label %return

sw.bb12:                                          ; preds = %sw.bb9
  store i32 -1, ptr %retval, align 4
  br label %return

sw.bb13:                                          ; preds = %sw.bb9
  store i32 1, ptr %retval, align 4
  br label %return

sw.epilog14:                                      ; preds = %sw.bb9
  br label %sw.epilog17

sw.bb15:                                          ; preds = %sw.bb7
  %7 = load ptr, ptr %other.addr, align 8
  %call16 = call noundef i32 @_ZN4node12_GLOBAL__N_112compare_ipv6ERKNS_13SocketAddressES3_(ptr noundef nonnull align 8 dereferenceable(136) %this1, ptr noundef nonnull align 8 dereferenceable(136) %7)
  store i32 %call16, ptr %retval, align 4
  br label %return

sw.epilog17:                                      ; preds = %sw.epilog14, %sw.bb7
  br label %sw.epilog18

sw.epilog18:                                      ; preds = %sw.epilog17, %sw.epilog, %entry
  store i32 -2, ptr %retval, align 4
  br label %return

return:                                           ; preds = %sw.epilog18, %sw.bb15, %sw.bb13, %sw.bb12, %sw.bb11, %sw.bb5, %sw.bb3
  %8 = load i32, ptr %retval, align 4
  ret i32 %8
}