; Function Attrs: mustprogress nofree nounwind willreturn memory(argmem: read) uwtable
define dso_local noundef i32 @_ZNK4node13SocketAddress7compareERKS0_(ptr nocapture noundef nonnull readonly align 8 dereferenceable(136) %this, ptr nocapture noundef nonnull readonly align 8 dereferenceable(136) %other) local_unnamed_addr #5 align 2 {
entry:
  %address_.i = getelementptr inbounds i8, ptr %this, i64 8
  %0 = load i16, ptr %address_.i, align 8
  switch i16 %0, label %return [
    i16 2, label %sw.bb
    i16 10, label %sw.bb7
  ]

sw.bb:                                            ; preds = %entry
  %address_.i7 = getelementptr inbounds i8, ptr %other, i64 8
  %1 = load i16, ptr %address_.i7, align 8
  switch i16 %1, label %return [
    i16 2, label %sw.bb3
    i16 10, label %sw.bb5
  ]

sw.bb3:                                           ; preds = %sw.bb
  %2 = getelementptr inbounds i8, ptr %this, i64 12
  %this.val = load i32, ptr %2, align 4
  %3 = getelementptr inbounds i8, ptr %other, i64 12
  %other.val = load i32, ptr %3, align 4
  %call2.i = tail call i32 @ntohl(i32 noundef %this.val) #23
  %call5.i = tail call i32 @ntohl(i32 noundef %other.val) #23
  %cmp.i = icmp ult i32 %call2.i, %call5.i
  %cmp6.i = icmp ne i32 %call2.i, %call5.i
  %..i = zext i1 %cmp6.i to i32
  %retval.0.i = select i1 %cmp.i, i32 -1, i32 %..i
  br label %return

sw.bb5:                                           ; preds = %sw.bb
  %sin6_addr.i = getelementptr inbounds i8, ptr %other, i64 16
  %bcmp.i = tail call i32 @bcmp(ptr noundef nonnull dereferenceable(12) %sin6_addr.i, ptr noundef nonnull dereferenceable(12) @_ZN4node12_GLOBAL__N_14maskE, i64 12)
  %cmp.not.i = icmp eq i32 %bcmp.i, 0
  br i1 %cmp.not.i, label %if.end.i, label %return

if.end.i:                                         ; preds = %sw.bb5
  %sin_addr.i = getelementptr inbounds i8, ptr %this, i64 12
  %add.ptr.i = getelementptr inbounds i8, ptr %other, i64 28
  %call3.i = tail call i32 @memcmp(ptr noundef nonnull dereferenceable(4) %sin_addr.i, ptr noundef nonnull dereferenceable(4) %add.ptr.i, i64 noundef 4) #24
  %cmp4.i = icmp slt i32 %call3.i, 0
  br i1 %cmp4.i, label %return, label %if.else.i

if.else.i:                                        ; preds = %if.end.i
  %cmp6.not.i = icmp ne i32 %call3.i, 0
  %..i10 = zext i1 %cmp6.not.i to i32
  br label %return

sw.bb7:                                           ; preds = %entry
  %address_.i11 = getelementptr inbounds i8, ptr %other, i64 8
  %4 = load i16, ptr %address_.i11, align 8
  switch i16 %4, label %return [
    i16 2, label %sw.bb9
    i16 10, label %sw.bb15
  ]

sw.bb9:                                           ; preds = %sw.bb7
  %sin6_addr.i13 = getelementptr inbounds i8, ptr %this, i64 16
  %bcmp.i14 = tail call i32 @bcmp(ptr noundef nonnull dereferenceable(12) %sin6_addr.i13, ptr noundef nonnull dereferenceable(12) @_ZN4node12_GLOBAL__N_14maskE, i64 12)
  %cmp.not.i15 = icmp eq i32 %bcmp.i14, 0
  br i1 %cmp.not.i15, label %if.end.i17, label %return

if.end.i17:                                       ; preds = %sw.bb9
  %sin_addr.i18 = getelementptr inbounds i8, ptr %other, i64 12
  %add.ptr.i19 = getelementptr inbounds i8, ptr %this, i64 28
  %call3.i20 = tail call i32 @memcmp(ptr noundef nonnull dereferenceable(4) %sin_addr.i18, ptr noundef nonnull dereferenceable(4) %add.ptr.i19, i64 noundef 4) #24
  %cmp4.i21 = icmp slt i32 %call3.i20, 0
  br i1 %cmp4.i21, label %return, label %_ZN4node12_GLOBAL__N_117compare_ipv4_ipv6ERKNS_13SocketAddressES3_.exit25

_ZN4node12_GLOBAL__N_117compare_ipv4_ipv6ERKNS_13SocketAddressES3_.exit25: ; preds = %if.end.i17
  %cmp6.not.i23.not.not = icmp ne i32 %call3.i20, 0
  %spec.select = sext i1 %cmp6.not.i23.not.not to i32
  br label %return

sw.bb15:                                          ; preds = %sw.bb7
  %sin6_addr.i26 = getelementptr inbounds i8, ptr %this, i64 16
  %sin6_addr2.i = getelementptr inbounds i8, ptr %other, i64 16
  %call3.i27 = tail call i32 @memcmp(ptr noundef nonnull dereferenceable(16) %sin6_addr.i26, ptr noundef nonnull dereferenceable(16) %sin6_addr2.i, i64 noundef 16) #24
  %cmp4.not.i = icmp ne i32 %call3.i27, 0
  %..i28 = zext i1 %cmp4.not.i to i32
  %cmp.inv.i = icmp sgt i32 %call3.i27, -1
  %retval.0.i29 = select i1 %cmp.inv.i, i32 %..i28, i32 -1
  br label %return

return:                                           ; preds = %_ZN4node12_GLOBAL__N_117compare_ipv4_ipv6ERKNS_13SocketAddressES3_.exit25, %if.end.i17, %sw.bb9, %if.else.i, %if.end.i, %sw.bb5, %entry, %sw.bb, %sw.bb7, %sw.bb15, %sw.bb3
  %retval.0 = phi i32 [ %retval.0.i29, %sw.bb15 ], [ %retval.0.i, %sw.bb3 ], [ -2, %sw.bb7 ], [ -2, %sw.bb ], [ -2, %entry ], [ -2, %sw.bb5 ], [ -1, %if.end.i ], [ %..i10, %if.else.i ], [ -2, %sw.bb9 ], [ %spec.select, %_ZN4node12_GLOBAL__N_117compare_ipv4_ipv6ERKNS_13SocketAddressES3_.exit25 ], [ 1, %if.end.i17 ]
  ret i32 %retval.0
}